target datalayout = "e-m:e-p270:32:32-p271:32:32-p272:64:64-i64:64-i128:128-f80:128-n8:16:32:64-S128"
target triple = "x86_64-pc-linux-gnu"

%struct.rb_data_type_struct = type { ptr, %struct.anon, ptr, ptr, i64 }
%struct.anon = type { ptr, ptr, ptr, ptr, [1 x ptr] }
%struct.strscanner = type { i64, i64, i64, i64, %struct.re_registers, i64, i8 }
%struct.re_registers = type { i32, i32, ptr, ptr }
%struct.RString = type { %struct.RBasic, i64, %union.anon }
%struct.RBasic = type { i64, i64 }
%union.anon = type { %struct.anon.0 }
%struct.anon.0 = type { ptr, %union.anon.1 }
%union.anon.1 = type { i64 }
%struct.anon.2 = type { [1 x i8] }

@strscanner_type = internal constant %struct.rb_data_type_struct { ptr @.str.2, %struct.anon { ptr @strscan_mark, ptr @strscan_free, ptr @strscan_memsize, ptr null, [1 x ptr] zeroinitializer }, ptr null, ptr null, i64 1 }, align 8
@rb_eArgError = external global i64, align 8
@.str.66 = private unnamed_addr constant [35 x i8] c"uninitialized StringScanner object\00", align 1

; Function Attrs: inlinehint nounwind sspstrong willreturn memory(read) uwtable
define internal i64 @RB_FL_TEST_RAW(i64 noundef %0, i64 noundef %1) #11 {
  %3 = alloca i64, align 8
  %4 = alloca i64, align 8
  store i64 %0, ptr %3, align 8, !tbaa !6
  store i64 %1, ptr %4, align 8, !tbaa !6
  %5 = load i64, ptr %3, align 8, !tbaa !6
  %6 = inttoptr i64 %5 to ptr
  %7 = getelementptr inbounds nuw %struct.RBasic, ptr %6, i32 0, i32 0
  %8 = load i64, ptr %7, align 8, !tbaa !61
  %9 = load i64, ptr %4, align 8, !tbaa !6
  %10 = and i64 %8, %9
  ret i64 %10
}

; Function Attrs: inlinehint nounwind sspstrong willreturn memory(read) uwtable
define internal zeroext i1 @RB_FL_ANY_RAW(i64 noundef %0, i64 noundef %1) #11 {
  %3 = alloca i64, align 8
  %4 = alloca i64, align 8
  store i64 %0, ptr %3, align 8, !tbaa !6
  store i64 %1, ptr %4, align 8, !tbaa !6
  %5 = load i64, ptr %3, align 8, !tbaa !6
  %6 = load i64, ptr %4, align 8, !tbaa !6
  %7 = call i64 @RB_FL_TEST_RAW(i64 noundef %5, i64 noundef %6) #28
  %8 = icmp ne i64 %7, 0
  ret i1 %8
}

; Function Attrs: inlinehint nounwind sspstrong willreturn memory(read, argmem: readwrite) uwtable
define internal void @rbimpl_rstring_getmem(ptr dead_on_unwind noalias writable sret(%struct.RString) align 8 %0, i64 noundef %1) #13 {
  %3 = alloca i64, align 8
  store i64 %1, ptr %3, align 8, !tbaa !6
  %4 = load i64, ptr %3, align 8, !tbaa !6
  %5 = call zeroext i1 @RB_FL_ANY_RAW(i64 noundef %4, i64 noundef 8192) #28
  br i1 %5, label %6, label %9

6:                                                ; preds = %2
  %7 = load i64, ptr %3, align 8, !tbaa !6
  %8 = inttoptr i64 %7 to ptr
  call void @llvm.memcpy.p0.p0.i64(ptr align 8 %0, ptr align 8 %8, i64 40, i1 false), !tbaa.struct !62
  br label %20

9:                                                ; preds = %2
  %10 = load i64, ptr %3, align 8, !tbaa !6
  %11 = call i64 @RSTRING_LEN(i64 noundef %10) #28
  %12 = getelementptr inbounds nuw %struct.RString, ptr %0, i32 0, i32 1
  store i64 %11, ptr %12, align 8, !tbaa !35
  %13 = load i64, ptr %3, align 8, !tbaa !6
  %14 = inttoptr i64 %13 to ptr
  %15 = getelementptr inbounds nuw %struct.RString, ptr %14, i32 0, i32 2
  %16 = getelementptr inbounds nuw %struct.anon.2, ptr %15, i32 0, i32 0
  %17 = getelementptr inbounds [1 x i8], ptr %16, i64 0, i64 0
  %18 = getelementptr inbounds nuw %struct.RString, ptr %0, i32 0, i32 2
  %19 = getelementptr inbounds nuw %struct.anon.0, ptr %18, i32 0, i32 0
  store ptr %17, ptr %19, align 8, !tbaa !31
  br label %20

20:                                               ; preds = %9, %6
  ret void
}

; Function Attrs: nounwind sspstrong uwtable
define internal i64 @str_new(ptr noundef %0, ptr noundef %1, i64 noundef %2) #0 {
  %4 = alloca ptr, align 8
  %5 = alloca ptr, align 8
  %6 = alloca i64, align 8
  %7 = alloca i64, align 8
  store ptr %0, ptr %4, align 8, !tbaa !15
  store ptr %1, ptr %5, align 8, !tbaa !12
  store i64 %2, ptr %6, align 8, !tbaa !6
  call void @llvm.lifetime.start.p0(i64 8, ptr %7) #23
  br i1 false, label %8, label %11

8:                                                ; preds = %3
  %9 = load i64, ptr %6, align 8, !tbaa !6
  %10 = call i1 @llvm.is.constant.i64(i64 %9)
  br label %11

11:                                               ; preds = %8, %3
  %12 = phi i1 [ false, %3 ], [ %10, %8 ]
  %13 = select i1 %12, ptr @rb_str_new_static, ptr @rb_str_new
  %14 = load ptr, ptr %5, align 8, !tbaa !12
  %15 = load i64, ptr %6, align 8, !tbaa !6
  %16 = call i64 %13(ptr noundef %14, i64 noundef %15)
  store i64 %16, ptr %7, align 8, !tbaa !6
  %17 = load i64, ptr %7, align 8, !tbaa !6
  %18 = load ptr, ptr %4, align 8, !tbaa !15
  %19 = getelementptr inbounds nuw %struct.strscanner, ptr %18, i32 0, i32 1
  %20 = load i64, ptr %19, align 8, !tbaa !22
  call void @rb_enc_copy(i64 noundef %17, i64 noundef %20)
  %21 = load i64, ptr %7, align 8, !tbaa !6
  call void @llvm.lifetime.end.p0(i64 8, ptr %7) #23
  ret i64 %21
}

; Function Attrs: inlinehint nounwind sspstrong uwtable
define internal ptr @RSTRING_PTR(i64 noundef %0) #4 {
  %2 = alloca i64, align 8
  %3 = alloca ptr, align 8
  %4 = alloca %struct.RString, align 8
  store i64 %0, ptr %2, align 8, !tbaa !6
  call void @llvm.lifetime.start.p0(i64 8, ptr %3) #23
  %5 = load i64, ptr %2, align 8, !tbaa !6
  call void @rbimpl_rstring_getmem(ptr dead_on_unwind writable sret(%struct.RString) align 8 %4, i64 noundef %5) #29
  %6 = getelementptr inbounds nuw %struct.RString, ptr %4, i32 0, i32 2
  %7 = getelementptr inbounds nuw %struct.anon.0, ptr %6, i32 0, i32 0
  %8 = load ptr, ptr %7, align 8, !tbaa !31
  store ptr %8, ptr %3, align 8, !tbaa !12
  %9 = load ptr, ptr %3, align 8, !tbaa !12
  call void @llvm.lifetime.end.p0(i64 8, ptr %3) #23
  ret ptr %9
}

; Function Attrs: inlinehint nounwind sspstrong uwtable
define internal i64 @minl(i64 noundef %0, i64 noundef %1) #4 {
  %3 = alloca i64, align 8
  %4 = alloca i64, align 8
  store i64 %0, ptr %3, align 8, !tbaa !6
  store i64 %1, ptr %4, align 8, !tbaa !6
  %5 = load i64, ptr %3, align 8, !tbaa !6
  %6 = load i64, ptr %4, align 8, !tbaa !6
  %7 = icmp slt i64 %5, %6
  br i1 %7, label %8, label %10

8:                                                ; preds = %2
  %9 = load i64, ptr %3, align 8, !tbaa !6
  br label %12

10:                                               ; preds = %2
  %11 = load i64, ptr %4, align 8, !tbaa !6
  br label %12

12:                                               ; preds = %10, %8
  %13 = phi i64 [ %9, %8 ], [ %11, %10 ]
  ret i64 %13
}

; Function Attrs: inlinehint nounwind sspstrong willreturn memory(read) uwtable
define internal i64 @RSTRING_LEN(i64 noundef %0) #11 {
  %2 = alloca i64, align 8
  store i64 %0, ptr %2, align 8, !tbaa !6
  %3 = load i64, ptr %2, align 8, !tbaa !6
  %4 = inttoptr i64 %3 to ptr
  %5 = getelementptr inbounds nuw %struct.RString, ptr %4, i32 0, i32 1
  %6 = load i64, ptr %5, align 8, !tbaa !35
  ret i64 %6
}

; Function Attrs: nounwind sspstrong uwtable
define internal i64 @extract_range(ptr noundef %0, i64 noundef %1, i64 noundef %2) #0 {
  %4 = alloca i64, align 8
  %5 = alloca ptr, align 8
  %6 = alloca i64, align 8
  %7 = alloca i64, align 8
  store ptr %0, ptr %5, align 8, !tbaa !15
  store i64 %1, ptr %6, align 8, !tbaa !6
  store i64 %2, ptr %7, align 8, !tbaa !6
  %8 = load i64, ptr %6, align 8, !tbaa !6
  %9 = load ptr, ptr %5, align 8, !tbaa !15
  %10 = getelementptr inbounds nuw %struct.strscanner, ptr %9, i32 0, i32 1
  %11 = load i64, ptr %10, align 8, !tbaa !22
  %12 = call i64 @RSTRING_LEN(i64 noundef %11) #28
  %13 = icmp sgt i64 %8, %12
  br i1 %13, label %14, label %15

14:                                               ; preds = %3
  store i64 4, ptr %4, align 8
  br label %33

15:                                               ; preds = %3
  %16 = load i64, ptr %7, align 8, !tbaa !6
  %17 = load ptr, ptr %5, align 8, !tbaa !15
  %18 = getelementptr inbounds nuw %struct.strscanner, ptr %17, i32 0, i32 1
  %19 = load i64, ptr %18, align 8, !tbaa !22
  %20 = call i64 @RSTRING_LEN(i64 noundef %19) #28
  %21 = call i64 @minl(i64 noundef %16, i64 noundef %20)
  store i64 %21, ptr %7, align 8, !tbaa !6
  %22 = load ptr, ptr %5, align 8, !tbaa !15
  %23 = load ptr, ptr %5, align 8, !tbaa !15
  %24 = getelementptr inbounds nuw %struct.strscanner, ptr %23, i32 0, i32 1
  %25 = load i64, ptr %24, align 8, !tbaa !22
  %26 = call ptr @RSTRING_PTR(i64 noundef %25)
  %27 = load i64, ptr %6, align 8, !tbaa !6
  %28 = getelementptr inbounds i8, ptr %26, i64 %27
  %29 = load i64, ptr %7, align 8, !tbaa !6
  %30 = load i64, ptr %6, align 8, !tbaa !6
  %31 = sub nsw i64 %29, %30
  %32 = call i64 @str_new(ptr noundef %22, ptr noundef %28, i64 noundef %31)
  store i64 %32, ptr %4, align 8
  br label %33

33:                                               ; preds = %15, %14
  %34 = load i64, ptr %4, align 8
  ret i64 %34
}

; Function Attrs: inlinehint nounwind sspstrong uwtable
define internal i64 @adjust_register_position(ptr noundef %0, i64 noundef %1) #4 {
  %3 = alloca i64, align 8
  %4 = alloca ptr, align 8
  %5 = alloca i64, align 8
  store ptr %0, ptr %4, align 8, !tbaa !15
  store i64 %1, ptr %5, align 8, !tbaa !6
  %6 = load ptr, ptr %4, align 8, !tbaa !15
  %7 = getelementptr inbounds nuw %struct.strscanner, ptr %6, i32 0, i32 6
  %8 = load i8, ptr %7, align 8, !tbaa !25, !range !41, !noundef !42
  %9 = trunc i8 %8 to i1
  br i1 %9, label %10, label %12

10:                                               ; preds = %2
  %11 = load i64, ptr %5, align 8, !tbaa !6
  store i64 %11, ptr %3, align 8
  br label %18

12:                                               ; preds = %2
  %13 = load ptr, ptr %4, align 8, !tbaa !15
  %14 = getelementptr inbounds nuw %struct.strscanner, ptr %13, i32 0, i32 2
  %15 = load i64, ptr %14, align 8, !tbaa !26
  %16 = load i64, ptr %5, align 8, !tbaa !6
  %17 = add nsw i64 %15, %16
  store i64 %17, ptr %3, align 8
  br label %18

18:                                               ; preds = %12, %10
  %19 = load i64, ptr %3, align 8
  ret i64 %19
}

; Function Attrs: inlinehint nounwind sspstrong willreturn memory(none) uwtable
define internal zeroext i1 @RB_NIL_P(i64 noundef %0) #7 {
  %2 = alloca i64, align 8
  store i64 %0, ptr %2, align 8, !tbaa !6
  %3 = load i64, ptr %2, align 8, !tbaa !6
  %4 = icmp eq i64 %3, 4
  ret i1 %4
}

; Function Attrs: nounwind sspstrong uwtable
define internal ptr @check_strscan(i64 noundef %0) #0 {
  %2 = alloca i64, align 8
  store i64 %0, ptr %2, align 8, !tbaa !6
  %3 = load i64, ptr %2, align 8, !tbaa !6
  %4 = call ptr @rb_check_typeddata(i64 noundef %3, ptr noundef @strscanner_type)
  ret ptr %4
}

; Function Attrs: nounwind sspstrong uwtable
define internal i64 @strscan_captures(i64 noundef %0) #0 {
  %2 = alloca i64, align 8
  %3 = alloca i64, align 8
  %4 = alloca ptr, align 8
  %5 = alloca i32, align 4
  %6 = alloca i32, align 4
  %7 = alloca i64, align 8
  %8 = alloca i32, align 4
  %9 = alloca i64, align 8
  store i64 %0, ptr %3, align 8, !tbaa !6
  call void @llvm.lifetime.start.p0(i64 8, ptr %4) #23
  call void @llvm.lifetime.start.p0(i64 4, ptr %5) #23
  call void @llvm.lifetime.start.p0(i64 4, ptr %6) #23
  call void @llvm.lifetime.start.p0(i64 8, ptr %7) #23
  br label %10

10:                                               ; preds = %1
  %11 = load i64, ptr %3, align 8, !tbaa !6
  %12 = call ptr @check_strscan(i64 noundef %11)
  store ptr %12, ptr %4, align 8, !tbaa !15
  %13 = load ptr, ptr %4, align 8, !tbaa !15
  %14 = getelementptr inbounds nuw %struct.strscanner, ptr %13, i32 0, i32 1
  %15 = load i64, ptr %14, align 8, !tbaa !22
  %16 = call zeroext i1 @RB_NIL_P(i64 noundef %15) #24
  br i1 %16, label %17, label %19

17:                                               ; preds = %10
  %18 = load i64, ptr @rb_eArgError, align 8, !tbaa !6
  call void (i64, ptr, ...) @rb_raise(i64 noundef %18, ptr noundef @.str.66) #27
  unreachable

19:                                               ; preds = %10
  br label %20

20:                                               ; preds = %19
  br label %21

21:                                               ; preds = %20
  %22 = load ptr, ptr %4, align 8, !tbaa !15
  %23 = getelementptr inbounds nuw %struct.strscanner, ptr %22, i32 0, i32 0
  %24 = load i64, ptr %23, align 8, !tbaa !17
  %25 = and i64 %24, 1
  %26 = icmp ne i64 %25, 0
  br i1 %26, label %28, label %27

27:                                               ; preds = %21
  store i64 4, ptr %2, align 8
  store i32 1, ptr %8, align 4
  br label %83

28:                                               ; preds = %21
  %29 = load ptr, ptr %4, align 8, !tbaa !15
  %30 = getelementptr inbounds nuw %struct.strscanner, ptr %29, i32 0, i32 4
  %31 = getelementptr inbounds nuw %struct.re_registers, ptr %30, i32 0, i32 1
  %32 = load i32, ptr %31, align 4, !tbaa !38
  store i32 %32, ptr %6, align 4, !tbaa !10
  %33 = load i32, ptr %6, align 4, !tbaa !10
  %34 = sext i32 %33 to i64
  %35 = call i64 @rb_ary_new_capa(i64 noundef %34)
  store i64 %35, ptr %7, align 8, !tbaa !6
  store i32 1, ptr %5, align 4, !tbaa !10
  br label %36

36:                                               ; preds = %78, %28
  %37 = load i32, ptr %5, align 4, !tbaa !10
  %38 = load i32, ptr %6, align 4, !tbaa !10
  %39 = icmp slt i32 %37, %38
  br i1 %39, label %40, label %81

40:                                               ; preds = %36
  call void @llvm.lifetime.start.p0(i64 8, ptr %9) #23
  %41 = load ptr, ptr %4, align 8, !tbaa !15
  %42 = getelementptr inbounds nuw %struct.strscanner, ptr %41, i32 0, i32 4
  %43 = getelementptr inbounds nuw %struct.re_registers, ptr %42, i32 0, i32 2
  %44 = load ptr, ptr %43, align 8, !tbaa !29
  %45 = load i32, ptr %5, align 4, !tbaa !10
  %46 = sext i32 %45 to i64
  %47 = getelementptr inbounds i64, ptr %44, i64 %46
  %48 = load i64, ptr %47, align 8, !tbaa !6
  %49 = icmp eq i64 %48, -1
  br i1 %49, label %50, label %51

50:                                               ; preds = %40
  store i64 4, ptr %9, align 8, !tbaa !6
  br label %74

51:                                               ; preds = %40
  %52 = load ptr, ptr %4, align 8, !tbaa !15
  %53 = load ptr, ptr %4, align 8, !tbaa !15
  %54 = load ptr, ptr %4, align 8, !tbaa !15
  %55 = getelementptr inbounds nuw %struct.strscanner, ptr %54, i32 0, i32 4
  %56 = getelementptr inbounds nuw %struct.re_registers, ptr %55, i32 0, i32 2
  %57 = load ptr, ptr %56, align 8, !tbaa !29
  %58 = load i32, ptr %5, align 4, !tbaa !10
  %59 = sext i32 %58 to i64
  %60 = getelementptr inbounds i64, ptr %57, i64 %59
  %61 = load i64, ptr %60, align 8, !tbaa !6
  %62 = call i64 @adjust_register_position(ptr noundef %53, i64 noundef %61)
  %63 = load ptr, ptr %4, align 8, !tbaa !15
  %64 = load ptr, ptr %4, align 8, !tbaa !15
  %65 = getelementptr inbounds nuw %struct.strscanner, ptr %64, i32 0, i32 4
  %66 = getelementptr inbounds nuw %struct.re_registers, ptr %65, i32 0, i32 3
  %67 = load ptr, ptr %66, align 8, !tbaa !30
  %68 = load i32, ptr %5, align 4, !tbaa !10
  %69 = sext i32 %68 to i64
  %70 = getelementptr inbounds i64, ptr %67, i64 %69
  %71 = load i64, ptr %70, align 8, !tbaa !6
  %72 = call i64 @adjust_register_position(ptr noundef %63, i64 noundef %71)
  %73 = call i64 @extract_range(ptr noundef %52, i64 noundef %62, i64 noundef %72)
  store i64 %73, ptr %9, align 8, !tbaa !6
  br label %74

74:                                               ; preds = %51, %50
  %75 = load i64, ptr %7, align 8, !tbaa !6
  %76 = load i64, ptr %9, align 8, !tbaa !6
  %77 = call i64 @rb_ary_push(i64 noundef %75, i64 noundef %76)
  call void @llvm.lifetime.end.p0(i64 8, ptr %9) #23
  br label %78

78:                                               ; preds = %74
  %79 = load i32, ptr %5, align 4, !tbaa !10
  %80 = add nsw i32 %79, 1
  store i32 %80, ptr %5, align 4, !tbaa !10
  br label %36, !llvm.loop !39

81:                                               ; preds = %36
  %82 = load i64, ptr %7, align 8, !tbaa !6
  store i64 %82, ptr %2, align 8
  store i32 1, ptr %8, align 4
  br label %83

83:                                               ; preds = %81, %27
  call void @llvm.lifetime.end.p0(i64 8, ptr %7) #23
  call void @llvm.lifetime.end.p0(i64 4, ptr %6) #23
  call void @llvm.lifetime.end.p0(i64 4, ptr %5) #23
  call void @llvm.lifetime.end.p0(i64 8, ptr %4) #23
  %84 = load i64, ptr %2, align 8
  ret i64 %84
}