; Function Attrs: nounwind sspstrong uwtable
define internal i64 @strscan_captures(i64 noundef %0) #0 {
  %2 = tail call ptr @rb_check_typeddata(i64 noundef %0, ptr noundef nonnull @strscanner_type) #12
  %3 = getelementptr inbounds nuw i8, ptr %2, i64 8
  %4 = load i64, ptr %3, align 8, !tbaa !23
  %5 = icmp eq i64 %4, 4
  br i1 %5, label %6, label %8

6:                                                ; preds = %1
  %7 = load i64, ptr @rb_eArgError, align 8, !tbaa !10
  tail call void (i64, ptr, ...) @rb_raise(i64 noundef %7, ptr noundef nonnull @.str.66) #14
  unreachable

8:                                                ; preds = %1
  %9 = load i64, ptr %2, align 8, !tbaa !18
  %10 = and i64 %9, 1
  %.not = icmp eq i64 %10, 0
  br i1 %.not, label %.loopexit, label %11

11:                                               ; preds = %8
  %12 = getelementptr inbounds nuw i8, ptr %2, i64 36
  %13 = load i32, ptr %12, align 4, !tbaa !82
  %14 = sext i32 %13 to i64
  %15 = tail call i64 @rb_ary_new_capa(i64 noundef %14) #12
  %16 = icmp sgt i32 %13, 1
  br i1 %16, label %.lr.ph, label %.loopexit

.lr.ph:                                           ; preds = %11
  %17 = getelementptr inbounds nuw i8, ptr %2, i64 40
  %18 = getelementptr inbounds nuw i8, ptr %2, i64 64
  %19 = getelementptr inbounds nuw i8, ptr %2, i64 16
  %20 = getelementptr inbounds nuw i8, ptr %2, i64 48
  %wide.trip.count = zext nneg i32 %13 to i64
  br label %21

21:                                               ; preds = %.lr.ph, %extract_range.exit
  %indvars.iv = phi i64 [ 1, %.lr.ph ], [ %indvars.iv.next, %extract_range.exit ]
  %22 = load ptr, ptr %17, align 8, !tbaa !43
  %23 = getelementptr inbounds nuw i64, ptr %22, i64 %indvars.iv
  %24 = load i64, ptr %23, align 8, !tbaa !10
  %25 = icmp eq i64 %24, -1
  br i1 %25, label %extract_range.exit, label %26

26:                                               ; preds = %21
  %27 = load i8, ptr %18, align 8, !tbaa !27, !range !41, !noundef !42
  %28 = trunc nuw i8 %27 to i1
  br i1 %28, label %adjust_register_position.exit.thread, label %32

adjust_register_position.exit.thread:             ; preds = %26
  %29 = load ptr, ptr %20, align 8, !tbaa !44
  %30 = getelementptr inbounds nuw i64, ptr %29, i64 %indvars.iv
  %31 = load i64, ptr %30, align 8, !tbaa !10
  br label %adjust_register_position.exit24

32:                                               ; preds = %26
  %33 = load i64, ptr %19, align 8, !tbaa !28
  %34 = add nsw i64 %33, %24
  %35 = load ptr, ptr %20, align 8, !tbaa !44
  %36 = getelementptr inbounds nuw i64, ptr %35, i64 %indvars.iv
  %37 = load i64, ptr %36, align 8, !tbaa !10
  %38 = add nsw i64 %33, %37
  br label %adjust_register_position.exit24

adjust_register_position.exit24:                  ; preds = %adjust_register_position.exit.thread, %32
  %.0.i27 = phi i64 [ %34, %32 ], [ %24, %adjust_register_position.exit.thread ]
  %.0.i23 = phi i64 [ %38, %32 ], [ %31, %adjust_register_position.exit.thread ]
  %39 = load i64, ptr %3, align 8, !tbaa !23
  %40 = inttoptr i64 %39 to ptr
  %41 = getelementptr inbounds nuw i8, ptr %40, i64 16
  %42 = load i64, ptr %41, align 8, !tbaa !32
  %43 = icmp sgt i64 %.0.i27, %42
  br i1 %43, label %extract_range.exit, label %44

44:                                               ; preds = %adjust_register_position.exit24
  %45 = tail call noundef i64 @llvm.smin.i64(i64 %.0.i23, i64 %42)
  %46 = load i64, ptr %40, align 8, !tbaa !34, !noalias !92
  %47 = and i64 %46, 8192
  %.not.i.i.i = icmp eq i64 %47, 0
  %48 = getelementptr inbounds nuw i8, ptr %40, i64 24
  br i1 %.not.i.i.i, label %RSTRING_PTR.exit.i, label %49

49:                                               ; preds = %44
  %.sroa.2.0.copyload.i.i = load ptr, ptr %48, align 8
  br label %RSTRING_PTR.exit.i

RSTRING_PTR.exit.i:                               ; preds = %49, %44
  %.sroa.2.0.i.i = phi ptr [ %.sroa.2.0.copyload.i.i, %49 ], [ %48, %44 ]
  %50 = getelementptr inbounds i8, ptr %.sroa.2.0.i.i, i64 %.0.i27
  %51 = sub nsw i64 %45, %.0.i27
  %52 = tail call i64 @rb_str_new(ptr noundef %50, i64 noundef %51) #12
  %53 = load i64, ptr %3, align 8, !tbaa !23
  tail call void @rb_enc_copy(i64 noundef %52, i64 noundef %53) #12
  br label %extract_range.exit

extract_range.exit:                               ; preds = %RSTRING_PTR.exit.i, %adjust_register_position.exit24, %21
  %.0 = phi i64 [ 4, %21 ], [ %52, %RSTRING_PTR.exit.i ], [ 4, %adjust_register_position.exit24 ]
  %54 = tail call i64 @rb_ary_push(i64 noundef %15, i64 noundef %.0) #12
  %indvars.iv.next = add nuw nsw i64 %indvars.iv, 1
  %exitcond.not = icmp eq i64 %indvars.iv.next, %wide.trip.count
  br i1 %exitcond.not, label %.loopexit, label %21, !llvm.loop !95

.loopexit:                                        ; preds = %extract_range.exit, %11, %8
  %.020 = phi i64 [ 4, %8 ], [ %15, %11 ], [ %15, %extract_range.exit ]
  ret i64 %.020
}